target datalayout = "e-m:e-p270:32:32-p271:32:32-p272:64:64-i64:64-i128:128-f80:128-n8:16:32:64-S128"
target triple = "x86_64-pc-linux-gnu"

%"struct.duckdb_zstd::buffer_s" = type { ptr, i64 }
%"struct.duckdb_zstd::ZSTD_customMem" = type { ptr, ptr, ptr }
%"struct.duckdb_zstd::ZSTDMT_bufferPool_s" = type { i32, i64, i32, i32, %"struct.duckdb_zstd::ZSTD_customMem", ptr }

; Function Attrs: inlinehint mustprogress uwtable
define internal void @_ZN11duckdb_zstdL15ZSTD_customFreeEPvNS_14ZSTD_customMemE(ptr noundef %0, ptr noundef byval(%"struct.duckdb_zstd::ZSTD_customMem") align 8 %1) #4 {
  %3 = alloca ptr, align 8
  store ptr %0, ptr %3, align 8, !tbaa !42
  %4 = load ptr, ptr %3, align 8, !tbaa !42
  %5 = icmp ne ptr %4, null
  br i1 %5, label %6, label %19

6:                                                ; preds = %2
  %7 = getelementptr inbounds nuw %"struct.duckdb_zstd::ZSTD_customMem", ptr %1, i32 0, i32 1
  %8 = load ptr, ptr %7, align 8, !tbaa !74
  %9 = icmp ne ptr %8, null
  br i1 %9, label %10, label %16

10:                                               ; preds = %6
  %11 = getelementptr inbounds nuw %"struct.duckdb_zstd::ZSTD_customMem", ptr %1, i32 0, i32 1
  %12 = load ptr, ptr %11, align 8, !tbaa !74
  %13 = getelementptr inbounds nuw %"struct.duckdb_zstd::ZSTD_customMem", ptr %1, i32 0, i32 2
  %14 = load ptr, ptr %13, align 8, !tbaa !75
  %15 = load ptr, ptr %3, align 8, !tbaa !42
  call void %12(ptr noundef %14, ptr noundef %15)
  br label %18

16:                                               ; preds = %6
  %17 = load ptr, ptr %3, align 8, !tbaa !42
  call void @free(ptr noundef %17) #12
  br label %18

18:                                               ; preds = %16, %10
  br label %19

19:                                               ; preds = %18, %2
  ret void
}

; Function Attrs: mustprogress uwtable
define internal void @_ZN11duckdb_zstdL21ZSTDMT_freeBufferPoolEPNS_19ZSTDMT_bufferPool_sE(ptr noundef %0) #1 {
  %2 = alloca ptr, align 8
  %3 = alloca i32, align 4
  %4 = alloca %"struct.duckdb_zstd::ZSTD_customMem", align 8
  %5 = alloca %"struct.duckdb_zstd::ZSTD_customMem", align 8
  %6 = alloca %"struct.duckdb_zstd::ZSTD_customMem", align 8
  store ptr %0, ptr %2, align 8, !tbaa !58
  br label %7

7:                                                ; preds = %1
  br label %8

8:                                                ; preds = %7
  %9 = load ptr, ptr %2, align 8, !tbaa !58
  %10 = icmp ne ptr %9, null
  br i1 %10, label %12, label %11

11:                                               ; preds = %8
  br label %51

12:                                               ; preds = %8
  %13 = load ptr, ptr %2, align 8, !tbaa !58
  %14 = getelementptr inbounds nuw %"struct.duckdb_zstd::ZSTDMT_bufferPool_s", ptr %13, i32 0, i32 5
  %15 = load ptr, ptr %14, align 8, !tbaa !59
  %16 = icmp ne ptr %15, null
  br i1 %16, label %17, label %47

17:                                               ; preds = %12
  call void @llvm.lifetime.start.p0(i64 4, ptr %3) #12
  store i32 0, ptr %3, align 4, !tbaa !3
  br label %18

18:                                               ; preds = %38, %17
  %19 = load i32, ptr %3, align 4, !tbaa !3
  %20 = load ptr, ptr %2, align 8, !tbaa !58
  %21 = getelementptr inbounds nuw %"struct.duckdb_zstd::ZSTDMT_bufferPool_s", ptr %20, i32 0, i32 2
  %22 = load i32, ptr %21, align 8, !tbaa !62
  %23 = icmp ult i32 %19, %22
  br i1 %23, label %24, label %41

24:                                               ; preds = %18
  br label %25

25:                                               ; preds = %24
  br label %26

26:                                               ; preds = %25
  br label %27

27:                                               ; preds = %26
  %28 = load ptr, ptr %2, align 8, !tbaa !58
  %29 = getelementptr inbounds nuw %"struct.duckdb_zstd::ZSTDMT_bufferPool_s", ptr %28, i32 0, i32 5
  %30 = load ptr, ptr %29, align 8, !tbaa !59
  %31 = load i32, ptr %3, align 4, !tbaa !3
  %32 = zext i32 %31 to i64
  %33 = getelementptr inbounds nuw %"struct.duckdb_zstd::buffer_s", ptr %30, i64 %32
  %34 = getelementptr inbounds nuw %"struct.duckdb_zstd::buffer_s", ptr %33, i32 0, i32 0
  %35 = load ptr, ptr %34, align 8, !tbaa !63
  %36 = load ptr, ptr %2, align 8, !tbaa !58
  %37 = getelementptr inbounds nuw %"struct.duckdb_zstd::ZSTDMT_bufferPool_s", ptr %36, i32 0, i32 4
  call void @llvm.memcpy.p0.p0.i64(ptr align 8 %4, ptr align 8 %37, i64 24, i1 false), !tbaa.struct !41
  call void @_ZN11duckdb_zstdL15ZSTD_customFreeEPvNS_14ZSTD_customMemE(ptr noundef %35, ptr noundef byval(%"struct.duckdb_zstd::ZSTD_customMem") align 8 %4)
  br label %38

38:                                               ; preds = %27
  %39 = load i32, ptr %3, align 4, !tbaa !3
  %40 = add i32 %39, 1
  store i32 %40, ptr %3, align 4, !tbaa !3
  br label %18, !llvm.loop !64

41:                                               ; preds = %18
  %42 = load ptr, ptr %2, align 8, !tbaa !58
  %43 = getelementptr inbounds nuw %"struct.duckdb_zstd::ZSTDMT_bufferPool_s", ptr %42, i32 0, i32 5
  %44 = load ptr, ptr %43, align 8, !tbaa !59
  %45 = load ptr, ptr %2, align 8, !tbaa !58
  %46 = getelementptr inbounds nuw %"struct.duckdb_zstd::ZSTDMT_bufferPool_s", ptr %45, i32 0, i32 4
  call void @llvm.memcpy.p0.p0.i64(ptr align 8 %5, ptr align 8 %46, i64 24, i1 false), !tbaa.struct !41
  call void @_ZN11duckdb_zstdL15ZSTD_customFreeEPvNS_14ZSTD_customMemE(ptr noundef %44, ptr noundef byval(%"struct.duckdb_zstd::ZSTD_customMem") align 8 %5)
  call void @llvm.lifetime.end.p0(i64 4, ptr %3) #12
  br label %47

47:                                               ; preds = %41, %12
  %48 = load ptr, ptr %2, align 8, !tbaa !58
  %49 = load ptr, ptr %2, align 8, !tbaa !58
  %50 = getelementptr inbounds nuw %"struct.duckdb_zstd::ZSTDMT_bufferPool_s", ptr %49, i32 0, i32 4
  call void @llvm.memcpy.p0.p0.i64(ptr align 8 %6, ptr align 8 %50, i64 24, i1 false), !tbaa.struct !41
  call void @_ZN11duckdb_zstdL15ZSTD_customFreeEPvNS_14ZSTD_customMemE(ptr noundef %48, ptr noundef byval(%"struct.duckdb_zstd::ZSTD_customMem") align 8 %6)
  br label %51

51:                                               ; preds = %47, %11
  ret void
}