; Function Attrs: mustprogress uwtable
define internal fastcc void @_ZN11duckdb_zstdL21ZSTDMT_freeBufferPoolEPNS_19ZSTDMT_bufferPool_sE(ptr noundef %0) unnamed_addr #1 {
  %.not = icmp eq ptr %0, null
  br i1 %.not, label %_ZN11duckdb_zstdL15ZSTD_customFreeEPvNS_14ZSTD_customMemE.exit23, label %2

2:                                                ; preds = %1
  %3 = getelementptr inbounds nuw i8, ptr %0, i64 48
  %4 = load ptr, ptr %3, align 8, !tbaa !46
  %.not12 = icmp eq ptr %4, null
  br i1 %.not12, label %20, label %.preheader

.preheader:                                       ; preds = %2
  %5 = getelementptr inbounds nuw i8, ptr %0, i64 16
  %6 = load i32, ptr %5, align 8, !tbaa !45
  %.not31 = icmp eq i32 %6, 0
  %.sroa.125.0..sroa_idx33 = getelementptr inbounds nuw i8, ptr %0, i64 32
  br i1 %.not31, label %._crit_edge.thread, label %.lr.ph

.lr.ph:                                           ; preds = %.preheader
  %.sroa.229.0..sroa_idx = getelementptr inbounds nuw i8, ptr %0, i64 40
  br label %7

7:                                                ; preds = %.lr.ph, %_ZN11duckdb_zstdL15ZSTD_customFreeEPvNS_14ZSTD_customMemE.exit
  %indvars.iv = phi i64 [ 0, %.lr.ph ], [ %indvars.iv.next, %_ZN11duckdb_zstdL15ZSTD_customFreeEPvNS_14ZSTD_customMemE.exit ]
  %8 = load ptr, ptr %3, align 8, !tbaa !46
  %9 = getelementptr inbounds nuw %"struct.duckdb_zstd::buffer_s", ptr %8, i64 %indvars.iv
  %10 = load ptr, ptr %9, align 8, !tbaa !64
  %.sroa.128.0.copyload = load ptr, ptr %.sroa.125.0..sroa_idx33, align 8, !tbaa !40
  %.sroa.229.0.copyload = load ptr, ptr %.sroa.229.0..sroa_idx, align 8, !tbaa !40
  %.not.i = icmp eq ptr %10, null
  br i1 %.not.i, label %_ZN11duckdb_zstdL15ZSTD_customFreeEPvNS_14ZSTD_customMemE.exit, label %11

11:                                               ; preds = %7
  %.not4.i = icmp eq ptr %.sroa.128.0.copyload, null
  br i1 %.not4.i, label %13, label %12

12:                                               ; preds = %11
  tail call void %.sroa.128.0.copyload(ptr noundef %.sroa.229.0.copyload, ptr noundef nonnull %10)
  br label %_ZN11duckdb_zstdL15ZSTD_customFreeEPvNS_14ZSTD_customMemE.exit

13:                                               ; preds = %11
  tail call void @free(ptr noundef nonnull %10) #16
  br label %_ZN11duckdb_zstdL15ZSTD_customFreeEPvNS_14ZSTD_customMemE.exit

_ZN11duckdb_zstdL15ZSTD_customFreeEPvNS_14ZSTD_customMemE.exit: ; preds = %7, %12, %13
  %indvars.iv.next = add nuw nsw i64 %indvars.iv, 1
  %14 = load i32, ptr %5, align 8, !tbaa !45
  %15 = zext i32 %14 to i64
  %16 = icmp samesign ult i64 %indvars.iv.next, %15
  br i1 %16, label %7, label %._crit_edge, !llvm.loop !65

._crit_edge:                                      ; preds = %_ZN11duckdb_zstdL15ZSTD_customFreeEPvNS_14ZSTD_customMemE.exit
  %.pre = load ptr, ptr %3, align 8, !tbaa !46
  %.sroa.125.0..sroa_idx = getelementptr inbounds nuw i8, ptr %0, i64 32
  %.not.i18 = icmp eq ptr %.pre, null
  br i1 %.not.i18, label %20, label %._crit_edge.thread

._crit_edge.thread:                               ; preds = %.preheader, %._crit_edge
  %.sroa.125.0.copyload38.in = phi ptr [ %.sroa.125.0..sroa_idx, %._crit_edge ], [ %.sroa.125.0..sroa_idx33, %.preheader ]
  %17 = phi ptr [ %.pre, %._crit_edge ], [ %4, %.preheader ]
  %.sroa.125.0.copyload38 = load ptr, ptr %.sroa.125.0.copyload38.in, align 8, !tbaa !40
  %.not4.i19 = icmp eq ptr %.sroa.125.0.copyload38, null
  br i1 %.not4.i19, label %19, label %18

18:                                               ; preds = %._crit_edge.thread
  %.sroa.226.0.copyload39.in = getelementptr inbounds nuw i8, ptr %0, i64 40
  %.sroa.226.0.copyload39 = load ptr, ptr %.sroa.226.0.copyload39.in, align 8, !tbaa !40
  tail call void %.sroa.125.0.copyload38(ptr noundef %.sroa.226.0.copyload39, ptr noundef nonnull %17)
  br label %20

19:                                               ; preds = %._crit_edge.thread
  tail call void @free(ptr noundef nonnull %17) #16
  br label %20

20:                                               ; preds = %2, %._crit_edge, %18, %19
  %.sroa.1.0..sroa_idx = getelementptr inbounds nuw i8, ptr %0, i64 32
  %.sroa.1.0.copyload = load ptr, ptr %.sroa.1.0..sroa_idx, align 8, !tbaa !40
  %.not4.i22 = icmp eq ptr %.sroa.1.0.copyload, null
  br i1 %.not4.i22, label %22, label %21

21:                                               ; preds = %20
  %.sroa.2.0..sroa_idx = getelementptr inbounds nuw i8, ptr %0, i64 40
  %.sroa.2.0.copyload = load ptr, ptr %.sroa.2.0..sroa_idx, align 8, !tbaa !40
  tail call void %.sroa.1.0.copyload(ptr noundef %.sroa.2.0.copyload, ptr noundef nonnull %0)
  br label %_ZN11duckdb_zstdL15ZSTD_customFreeEPvNS_14ZSTD_customMemE.exit23

22:                                               ; preds = %20
  tail call void @free(ptr noundef nonnull %0) #16
  br label %_ZN11duckdb_zstdL15ZSTD_customFreeEPvNS_14ZSTD_customMemE.exit23

_ZN11duckdb_zstdL15ZSTD_customFreeEPvNS_14ZSTD_customMemE.exit23: ; preds = %22, %21, %1
  ret void
}